target datalayout = "e-m:e-p270:32:32-p271:32:32-p272:64:64-i64:64-i128:128-f80:128-n8:16:32:64-S128"
target triple = "x86_64-pc-linux-gnu"

%struct.PLpgSQL_function = type { ptr, i32, i32, %struct.ItemPointerData, i32, i32, ptr, ptr, i32, i32, i8, i8, i8, i8, i8, i8, i32, [100 x i32], i32, i32, i32, i32, i32, i8, i32, i32, i32, ptr, i64, ptr, i32, i8, i8, ptr, i64 }
%struct.ItemPointerData = type { %struct.BlockIdData, i16 }
%struct.BlockIdData = type { i16, i16 }
%struct.PLpgSQL_stmt_return_query = type { i32, i32, i32, ptr, ptr, ptr }

@plpgsql_curr_compile = external global ptr, align 8
@.str.2 = private unnamed_addr constant [11 x i8] c"plpgsql-18\00", align 1
@.str.4 = private unnamed_addr constant [10 x i8] c"pl_gram.y\00", align 1
@.str.12 = private unnamed_addr constant [2 x i8] c";\00", align 1
@.str.62 = private unnamed_addr constant [7 x i8] c", or ;\00", align 1
@.str.114 = private unnamed_addr constant [48 x i8] c"cannot use RETURN QUERY in a non-SETOF function\00", align 1
@__func__.make_return_query_stmt = private unnamed_addr constant [23 x i8] c"make_return_query_stmt\00", align 1
@.str.115 = private unnamed_addr constant [11 x i8] c"; or USING\00", align 1

; Function Attrs: nounwind uwtable
define internal ptr @read_sql_expression2(i32 noundef %0, i32 noundef %1, ptr noundef %2, ptr noundef %3, ptr noundef %4, ptr noundef %5, ptr noundef %6) #0 {
  %8 = alloca i32, align 4
  %9 = alloca i32, align 4
  %10 = alloca ptr, align 8
  %11 = alloca ptr, align 8
  %12 = alloca ptr, align 8
  %13 = alloca ptr, align 8
  %14 = alloca ptr, align 8
  store i32 %0, ptr %8, align 4
  store i32 %1, ptr %9, align 4
  store ptr %2, ptr %10, align 8
  store ptr %3, ptr %11, align 8
  store ptr %4, ptr %12, align 8
  store ptr %5, ptr %13, align 8
  store ptr %6, ptr %14, align 8
  %15 = load i32, ptr %8, align 4
  %16 = load i32, ptr %9, align 4
  %17 = load ptr, ptr %10, align 8
  %18 = load ptr, ptr %11, align 8
  %19 = load ptr, ptr %12, align 8
  %20 = load ptr, ptr %13, align 8
  %21 = load ptr, ptr %14, align 8
  %22 = call ptr @read_sql_construct(i32 noundef %15, i32 noundef %16, i32 noundef 0, ptr noundef %17, i32 noundef 2, i1 noundef zeroext true, i1 noundef zeroext true, ptr noundef null, ptr noundef %18, ptr noundef %19, ptr noundef %20, ptr noundef %21)
  ret ptr %22
}

; Function Attrs: nounwind uwtable
define internal ptr @read_sql_stmt(ptr noundef %0, ptr noundef %1, ptr noundef %2) #0 {
  %4 = alloca ptr, align 8
  %5 = alloca ptr, align 8
  %6 = alloca ptr, align 8
  store ptr %0, ptr %4, align 8
  store ptr %1, ptr %5, align 8
  store ptr %2, ptr %6, align 8
  %7 = load ptr, ptr %4, align 8
  %8 = load ptr, ptr %5, align 8
  %9 = load ptr, ptr %6, align 8
  %10 = call ptr @read_sql_construct(i32 noundef 59, i32 noundef 0, i32 noundef 0, ptr noundef @.str.12, i32 noundef 0, i1 noundef zeroext false, i1 noundef zeroext true, ptr noundef null, ptr noundef null, ptr noundef %7, ptr noundef %8, ptr noundef %9)
  ret ptr %10
}

; Function Attrs: nounwind uwtable
define internal ptr @make_return_query_stmt(i32 noundef %0, ptr noundef %1, ptr noundef %2, ptr noundef %3) #0 {
  %5 = alloca i32, align 4
  %6 = alloca ptr, align 8
  %7 = alloca ptr, align 8
  %8 = alloca ptr, align 8
  %9 = alloca ptr, align 8
  %10 = alloca i32, align 4
  %11 = alloca i32, align 4
  %12 = alloca ptr, align 8
  store i32 %0, ptr %5, align 4
  store ptr %1, ptr %6, align 8
  store ptr %2, ptr %7, align 8
  store ptr %3, ptr %8, align 8
  call void @llvm.lifetime.start.p0(i64 8, ptr %9) #10
  call void @llvm.lifetime.start.p0(i64 4, ptr %10) #10
  %13 = load ptr, ptr @plpgsql_curr_compile, align 8
  %14 = getelementptr inbounds nuw %struct.PLpgSQL_function, ptr %13, i32 0, i32 13
  %15 = load i8, ptr %14, align 1, !range !3, !noundef !4
  %16 = trunc i8 %15 to i1
  br i1 %16, label %32, label %17

17:                                               ; preds = %4
  br label %18

18:                                               ; preds = %17
  br i1 true, label %19, label %21

19:                                               ; preds = %18
  %20 = call zeroext i1 @errstart_cold(i32 noundef 21, ptr noundef @.str.2) #12
  br i1 %20, label %23, label %29

21:                                               ; preds = %18
  %22 = call zeroext i1 @errstart(i32 noundef 21, ptr noundef @.str.2)
  br i1 %22, label %23, label %29

23:                                               ; preds = %21, %19
  %24 = call i32 @errcode(i32 noundef 67141764)
  %25 = call i32 (ptr, ...) @errmsg(ptr noundef @.str.114)
  %26 = load i32, ptr %5, align 4
  %27 = load ptr, ptr %8, align 8
  %28 = call i32 @plpgsql_scanner_errposition(i32 noundef %26, ptr noundef %27)
  call void @errfinish(ptr noundef @.str.4, i32 noundef 3509, ptr noundef @__func__.make_return_query_stmt)
  br label %29

29:                                               ; preds = %23, %21, %19
  unreachable

30:                                               ; No predecessors!
  br label %31

31:                                               ; preds = %30
  br label %32

32:                                               ; preds = %31, %4
  %33 = call ptr @palloc0(i64 noundef 40)
  store ptr %33, ptr %9, align 8
  %34 = load ptr, ptr %9, align 8
  %35 = getelementptr inbounds nuw %struct.PLpgSQL_stmt_return_query, ptr %34, i32 0, i32 0
  store i32 13, ptr %35, align 8
  %36 = load i32, ptr %5, align 4
  %37 = load ptr, ptr %8, align 8
  %38 = call i32 @plpgsql_location_to_lineno(i32 noundef %36, ptr noundef %37)
  %39 = load ptr, ptr %9, align 8
  %40 = getelementptr inbounds nuw %struct.PLpgSQL_stmt_return_query, ptr %39, i32 0, i32 1
  store i32 %38, ptr %40, align 4
  %41 = load ptr, ptr @plpgsql_curr_compile, align 8
  %42 = getelementptr inbounds nuw %struct.PLpgSQL_function, ptr %41, i32 0, i32 30
  %43 = load i32, ptr %42, align 8
  %44 = add i32 %43, 1
  store i32 %44, ptr %42, align 8
  %45 = load ptr, ptr %9, align 8
  %46 = getelementptr inbounds nuw %struct.PLpgSQL_stmt_return_query, ptr %45, i32 0, i32 2
  store i32 %44, ptr %46, align 8
  %47 = load ptr, ptr %6, align 8
  %48 = load ptr, ptr %7, align 8
  %49 = load ptr, ptr %8, align 8
  %50 = call i32 @plpgsql_yylex(ptr noundef %47, ptr noundef %48, ptr noundef %49)
  store i32 %50, ptr %10, align 4
  %51 = icmp ne i32 %50, 317
  br i1 %51, label %52, label %63

52:                                               ; preds = %32
  %53 = load i32, ptr %10, align 4
  %54 = load ptr, ptr %6, align 8
  %55 = load ptr, ptr %7, align 8
  %56 = load ptr, ptr %8, align 8
  call void @plpgsql_push_back_token(i32 noundef %53, ptr noundef %54, ptr noundef %55, ptr noundef %56)
  %57 = load ptr, ptr %6, align 8
  %58 = load ptr, ptr %7, align 8
  %59 = load ptr, ptr %8, align 8
  %60 = call ptr @read_sql_stmt(ptr noundef %57, ptr noundef %58, ptr noundef %59)
  %61 = load ptr, ptr %9, align 8
  %62 = getelementptr inbounds nuw %struct.PLpgSQL_stmt_return_query, ptr %61, i32 0, i32 3
  store ptr %60, ptr %62, align 8
  br label %90

63:                                               ; preds = %32
  call void @llvm.lifetime.start.p0(i64 4, ptr %11) #10
  %64 = load ptr, ptr %6, align 8
  %65 = load ptr, ptr %7, align 8
  %66 = load ptr, ptr %8, align 8
  %67 = call ptr @read_sql_expression2(i32 noundef 59, i32 noundef 381, ptr noundef @.str.115, ptr noundef %11, ptr noundef %64, ptr noundef %65, ptr noundef %66)
  %68 = load ptr, ptr %9, align 8
  %69 = getelementptr inbounds nuw %struct.PLpgSQL_stmt_return_query, ptr %68, i32 0, i32 4
  store ptr %67, ptr %69, align 8
  %70 = load i32, ptr %11, align 4
  %71 = icmp eq i32 %70, 381
  br i1 %71, label %72, label %89

72:                                               ; preds = %63
  br label %73

73:                                               ; preds = %85, %72
  call void @llvm.lifetime.start.p0(i64 8, ptr %12) #10
  %74 = load ptr, ptr %6, align 8
  %75 = load ptr, ptr %7, align 8
  %76 = load ptr, ptr %8, align 8
  %77 = call ptr @read_sql_expression2(i32 noundef 44, i32 noundef 59, ptr noundef @.str.62, ptr noundef %11, ptr noundef %74, ptr noundef %75, ptr noundef %76)
  store ptr %77, ptr %12, align 8
  %78 = load ptr, ptr %9, align 8
  %79 = getelementptr inbounds nuw %struct.PLpgSQL_stmt_return_query, ptr %78, i32 0, i32 5
  %80 = load ptr, ptr %79, align 8
  %81 = load ptr, ptr %12, align 8
  %82 = call ptr @lappend(ptr noundef %80, ptr noundef %81)
  %83 = load ptr, ptr %9, align 8
  %84 = getelementptr inbounds nuw %struct.PLpgSQL_stmt_return_query, ptr %83, i32 0, i32 5
  store ptr %82, ptr %84, align 8
  call void @llvm.lifetime.end.p0(i64 8, ptr %12) #10
  br label %85

85:                                               ; preds = %73
  %86 = load i32, ptr %11, align 4
  %87 = icmp eq i32 %86, 44
  br i1 %87, label %73, label %88, !llvm.loop !22

88:                                               ; preds = %85
  br label %89

89:                                               ; preds = %88, %63
  call void @llvm.lifetime.end.p0(i64 4, ptr %11) #10
  br label %90

90:                                               ; preds = %89, %52
  %91 = load ptr, ptr %9, align 8
  call void @llvm.lifetime.end.p0(i64 4, ptr %10) #10
  call void @llvm.lifetime.end.p0(i64 8, ptr %9) #10
  ret ptr %91
}