; Function Attrs: nounwind uwtable
define internal fastcc noundef ptr @make_return_query_stmt(i32 noundef %0, ptr noundef nonnull %1, ptr noundef nonnull %2, ptr noundef %3) unnamed_addr #0 {
  %5 = alloca i32, align 4
  %6 = load ptr, ptr @plpgsql_curr_compile, align 8
  %7 = getelementptr inbounds nuw i8, ptr %6, i64 59
  %8 = load i8, ptr %7, align 1, !range !3, !noundef !4
  %9 = trunc nuw i8 %8 to i1
  br i1 %9, label %15, label %10

10:                                               ; preds = %4
  %11 = tail call zeroext i1 @errstart_cold(i32 noundef 21, ptr noundef nonnull @.str.2) #14
  tail call void @llvm.assume(i1 %11)
  %12 = tail call i32 @errcode(i32 noundef 67141764) #12
  %13 = tail call i32 (ptr, ...) @errmsg(ptr noundef nonnull @.str.114) #12
  %14 = tail call i32 @plpgsql_scanner_errposition(i32 noundef %0, ptr noundef %3) #12
  tail call void @errfinish(ptr noundef nonnull @.str.4, i32 noundef 3509, ptr noundef nonnull @__func__.make_return_query_stmt) #12
  unreachable

15:                                               ; preds = %4
  %16 = tail call ptr @palloc0(i64 noundef 40) #12
  store i32 13, ptr %16, align 8
  %17 = tail call i32 @plpgsql_location_to_lineno(i32 noundef %0, ptr noundef %3) #12
  %18 = getelementptr inbounds nuw i8, ptr %16, i64 4
  store i32 %17, ptr %18, align 4
  %19 = load ptr, ptr @plpgsql_curr_compile, align 8
  %20 = getelementptr inbounds nuw i8, ptr %19, i64 528
  %21 = load i32, ptr %20, align 8
  %22 = add i32 %21, 1
  store i32 %22, ptr %20, align 8
  %23 = getelementptr inbounds nuw i8, ptr %16, i64 8
  store i32 %22, ptr %23, align 8
  %24 = tail call i32 @plpgsql_yylex(ptr noundef nonnull %1, ptr noundef nonnull %2, ptr noundef %3) #12
  %.not = icmp eq i32 %24, 317
  br i1 %.not, label %28, label %25

25:                                               ; preds = %15
  tail call void @plpgsql_push_back_token(i32 noundef %24, ptr noundef nonnull %1, ptr noundef nonnull %2, ptr noundef %3) #12
  %26 = tail call fastcc ptr @read_sql_construct(i32 noundef 59, i32 noundef 0, i32 noundef 0, ptr noundef nonnull @.str.12, i32 noundef 0, i1 noundef zeroext false, i1 noundef zeroext true, ptr noundef null, ptr noundef null, ptr noundef nonnull %1, ptr noundef nonnull %2, ptr noundef %3)
  %27 = getelementptr inbounds nuw i8, ptr %16, i64 16
  store ptr %26, ptr %27, align 8
  br label %40

28:                                               ; preds = %15
  call void @llvm.lifetime.start.p0(i64 4, ptr nonnull %5) #12
  %29 = call fastcc ptr @read_sql_construct(i32 noundef 59, i32 noundef 381, i32 noundef 0, ptr noundef nonnull @.str.115, i32 noundef 2, i1 noundef zeroext true, i1 noundef zeroext true, ptr noundef null, ptr noundef nonnull %5, ptr noundef nonnull %1, ptr noundef nonnull %2, ptr noundef %3)
  %30 = getelementptr inbounds nuw i8, ptr %16, i64 24
  store ptr %29, ptr %30, align 8
  %31 = load i32, ptr %5, align 4
  %32 = icmp eq i32 %31, 381
  br i1 %32, label %.preheader, label %.loopexit

.preheader:                                       ; preds = %28
  %33 = getelementptr inbounds nuw i8, ptr %16, i64 32
  br label %34

34:                                               ; preds = %.preheader, %34
  %35 = call fastcc ptr @read_sql_construct(i32 noundef 44, i32 noundef 59, i32 noundef 0, ptr noundef nonnull @.str.62, i32 noundef 2, i1 noundef zeroext true, i1 noundef zeroext true, ptr noundef null, ptr noundef nonnull %5, ptr noundef nonnull %1, ptr noundef nonnull %2, ptr noundef %3)
  %36 = load ptr, ptr %33, align 8
  %37 = call ptr @lappend(ptr noundef %36, ptr noundef %35) #12
  store ptr %37, ptr %33, align 8
  %38 = load i32, ptr %5, align 4
  %39 = icmp eq i32 %38, 44
  br i1 %39, label %34, label %.loopexit, !llvm.loop !18

.loopexit:                                        ; preds = %34, %28
  call void @llvm.lifetime.end.p0(i64 4, ptr nonnull %5) #12
  br label %40

40:                                               ; preds = %.loopexit, %25
  ret ptr %16
}